target datalayout = "e-m:e-p270:32:32-p271:32:32-p272:64:64-i64:64-i128:128-f80:128-n8:16:32:64-S128"
target triple = "x86_64-pc-linux-gnu"

%struct.ComplexMatrixN = type { i32, ptr, ptr }

@__func__.createComplexMatrixN = private unnamed_addr constant [21 x i8] c"createComplexMatrixN\00", align 1

; Function Attrs: nounwind uwtable
define void @createComplexMatrixN(ptr dead_on_unwind noalias writable sret(%struct.ComplexMatrixN) align 8 %0, i32 noundef %1) #0 {
  %3 = alloca i32, align 4
  %4 = alloca i32, align 4
  %5 = alloca i32, align 4
  store i32 %1, ptr %3, align 4, !tbaa !4
  %6 = load i32, ptr %3, align 4, !tbaa !4
  call void @validateNumQubitsInMatrix(i32 noundef %6, ptr noundef @__func__.createComplexMatrixN)
  call void @llvm.lifetime.start.p0(i64 4, ptr %4) #7
  %7 = load i32, ptr %3, align 4, !tbaa !4
  %8 = shl i32 1, %7
  store i32 %8, ptr %4, align 4, !tbaa !4
  %9 = getelementptr inbounds nuw %struct.ComplexMatrixN, ptr %0, i32 0, i32 0
  %10 = load i32, ptr %3, align 4, !tbaa !4
  store i32 %10, ptr %9, align 8, !tbaa !45
  %11 = getelementptr i8, ptr %0, i64 4
  call void @llvm.memset.p0.i64(ptr align 4 %11, i8 0, i64 4, i1 false)
  %12 = getelementptr inbounds nuw %struct.ComplexMatrixN, ptr %0, i32 0, i32 1
  %13 = load i32, ptr %4, align 4, !tbaa !4
  %14 = sext i32 %13 to i64
  %15 = mul i64 %14, 8
  %16 = call noalias ptr @malloc(i64 noundef %15) #8
  store ptr %16, ptr %12, align 8, !tbaa !48
  %17 = getelementptr inbounds nuw %struct.ComplexMatrixN, ptr %0, i32 0, i32 2
  %18 = load i32, ptr %4, align 4, !tbaa !4
  %19 = sext i32 %18 to i64
  %20 = mul i64 %19, 8
  %21 = call noalias ptr @malloc(i64 noundef %20) #8
  store ptr %21, ptr %17, align 8, !tbaa !49
  call void @llvm.lifetime.start.p0(i64 4, ptr %5) #7
  store i32 0, ptr %5, align 4, !tbaa !4
  br label %22

22:                                               ; preds = %45, %2
  %23 = load i32, ptr %5, align 4, !tbaa !4
  %24 = load i32, ptr %3, align 4, !tbaa !4
  %25 = shl i32 1, %24
  %26 = icmp slt i32 %23, %25
  br i1 %26, label %28, label %27

27:                                               ; preds = %22
  call void @llvm.lifetime.end.p0(i64 4, ptr %5) #7
  br label %48

28:                                               ; preds = %22
  %29 = load i32, ptr %4, align 4, !tbaa !4
  %30 = sext i32 %29 to i64
  %31 = call noalias ptr @calloc(i64 noundef %30, i64 noundef 8) #9
  %32 = getelementptr inbounds nuw %struct.ComplexMatrixN, ptr %0, i32 0, i32 1
  %33 = load ptr, ptr %32, align 8, !tbaa !48
  %34 = load i32, ptr %5, align 4, !tbaa !4
  %35 = sext i32 %34 to i64
  %36 = getelementptr inbounds ptr, ptr %33, i64 %35
  store ptr %31, ptr %36, align 8, !tbaa !23
  %37 = load i32, ptr %4, align 4, !tbaa !4
  %38 = sext i32 %37 to i64
  %39 = call noalias ptr @calloc(i64 noundef %38, i64 noundef 8) #9
  %40 = getelementptr inbounds nuw %struct.ComplexMatrixN, ptr %0, i32 0, i32 2
  %41 = load ptr, ptr %40, align 8, !tbaa !49
  %42 = load i32, ptr %5, align 4, !tbaa !4
  %43 = sext i32 %42 to i64
  %44 = getelementptr inbounds ptr, ptr %41, i64 %43
  store ptr %39, ptr %44, align 8, !tbaa !23
  br label %45

45:                                               ; preds = %28
  %46 = load i32, ptr %5, align 4, !tbaa !4
  %47 = add nsw i32 %46, 1
  store i32 %47, ptr %5, align 4, !tbaa !4
  br label %22

48:                                               ; preds = %27
  call void @validateMatrixInit(ptr noundef byval(%struct.ComplexMatrixN) align 8 %0, ptr noundef @__func__.createComplexMatrixN)
  call void @llvm.lifetime.end.p0(i64 4, ptr %4) #7
  ret void
}