; Function Attrs: nounwind uwtable
define void @createComplexMatrixN(ptr dead_on_unwind noalias writable sret(%struct.ComplexMatrixN) align 8 captures(none) initializes((0, 24)) %0, i32 noundef %1) local_unnamed_addr #0 {
  tail call void @validateNumQubitsInMatrix(i32 noundef %1, ptr noundef nonnull @__func__.createComplexMatrixN) #17
  %3 = shl nuw i32 1, %1
  store i32 %1, ptr %0, align 8, !tbaa !25
  %4 = getelementptr inbounds nuw i8, ptr %0, i64 4
  store i32 0, ptr %4, align 4
  %5 = getelementptr inbounds nuw i8, ptr %0, i64 8
  %6 = sext i32 %3 to i64
  %7 = shl nsw i64 %6, 3
  %8 = tail call noalias ptr @malloc(i64 noundef %7) #18
  store ptr %8, ptr %5, align 8, !tbaa !28
  %9 = getelementptr inbounds nuw i8, ptr %0, i64 16
  %10 = tail call noalias ptr @malloc(i64 noundef %7) #18
  store ptr %10, ptr %9, align 8, !tbaa !29
  %.not = icmp eq i32 %1, 31
  br i1 %.not, label %._crit_edge, label %.lr.ph.preheader

.lr.ph.preheader:                                 ; preds = %2
  %smax = tail call i32 @llvm.smax.i32(i32 %3, i32 1)
  %wide.trip.count = zext nneg i32 %smax to i64
  br label %.lr.ph

._crit_edge:                                      ; preds = %.lr.ph, %2
  tail call void @validateMatrixInit(ptr noundef nonnull byval(%struct.ComplexMatrixN) align 8 %0, ptr noundef nonnull @__func__.createComplexMatrixN) #17
  ret void

.lr.ph:                                           ; preds = %.lr.ph.preheader, %.lr.ph
  %indvars.iv = phi i64 [ 0, %.lr.ph.preheader ], [ %indvars.iv.next, %.lr.ph ]
  %11 = tail call noalias ptr @calloc(i64 noundef %6, i64 noundef 8) #19
  %12 = getelementptr inbounds nuw ptr, ptr %8, i64 %indvars.iv
  store ptr %11, ptr %12, align 8, !tbaa !30
  %13 = tail call noalias ptr @calloc(i64 noundef %6, i64 noundef 8) #19
  %14 = getelementptr inbounds nuw ptr, ptr %10, i64 %indvars.iv
  store ptr %13, ptr %14, align 8, !tbaa !30
  %indvars.iv.next = add nuw nsw i64 %indvars.iv, 1
  %exitcond.not = icmp eq i64 %indvars.iv.next, %wide.trip.count
  br i1 %exitcond.not, label %._crit_edge, label %.lr.ph
}